-----BEGIN RSA PRIVATE KEY-----
MIICXAIBAAKBgQCZgUUFNY3+c9HZ43jQIvoejaf1CPM5C79apElF8I1syOao6voe
/Gm/k1CwC43w/KIORr9xZbHiTzPqpTKB+3z3eWyYmwh1kzAV0aSbGaBtF3vsxw2m
NY6KbYP2R3e91eex4EVRA/RmCy4ureYJ7tteftQNRoWjAUxmhI6/DyCxBwIDAQAB
AoGAFM5rv4gBxhKGyCTH9FY5VrjWoiTjasEH385SzDMNyEf208B9xINsBfZ+wk3e
oGJtyMeYHVOuZ8FahRx9GxcuWdsSMvjKpBi4+X0GZQsw7rmqYUYgqXLb7Gp2CXqK
CqVajQpF7zqVU0CogXkZgIWxTX89K/3E+DfGY+fWCgGnOaECQQDIsUjXbzcmpCgj
3mqelWyJamu5+lSgZ8vfbWdLuwx7Zi8oyAxx+a5hSezI8SJH9bL0/TvIczliA2rd
C/wyeOfRAkEAw87vpxQwdxBCdu9P7yfhnWWoWH8zZN5fJxq9MUv52doPcgk6S7PT
w0Jn1Oe3dfel0Q+HFVDOaPGOGz/2ix6ZVwJBAIJT1ojImVkHm2WHp1dqk7w9Fs4E
SXaNUTC7vCvKwVVVS2TBXIubZ+mX9yOaq/dtEBTWaj9GzEnhDEGV6eXg7DECQFrd
1E8XymnmbMGeytx0CHova9Etrl735vZRrUyMMnVLgXFtINVyrSnmziJ6KaQf+Z4r
84cLyc3fkw/IPhRPbd8CQE9SYxaUJxe34RGzwC57zRvYlW1cJ4p/K2B+85D3K2V3
X5s0qqNQ/EUXNBXCF7e2tcB4bTHpe+Vlx1/lcNbbXRA=
-----END RSA PRIVATE KEY-----
Certificate:
    Data:
        Version: 3 (0x2)
        Serial Number: 1 (0x1)
        Signature Algorithm: sha1WithRSAEncryption
        Issuer: C=PH, ST=Benguet, L=Baguio, O=Saint Louis University, OU=MIS, CN=webservice/emailAddress=ay.buenavista@gmail.com
        Validity
            Not Before: Mar 25 05:16:07 2009 GMT
            Not After : Mar 25 05:16:07 2010 GMT
        Subject: C=PH, ST=Benguet, O=Saint Louis University, OU=MIS, CN=webservice/emailAddress=ay.buenavista@gmail.com
        Subject Public Key Info:
            Public Key Algorithm: rsaEncryption
            RSA Public Key: (1024 bit)
                Modulus (1024 bit):
                    00:99:81:45:05:35:8d:fe:73:d1:d9:e3:78:d0:22:
                    fa:1e:8d:a7:f5:08:f3:39:0b:bf:5a:a4:49:45:f0:
                    8d:6c:c8:e6:a8:ea:fa:1e:fc:69:bf:93:50:b0:0b:
                    8d:f0:fc:a2:0e:46:bf:71:65:b1:e2:4f:33:ea:a5:
                    32:81:fb:7c:f7:79:6c:98:9b:08:75:93:30:15:d1:
                    a4:9b:19:a0:6d:17:7b:ec:c7:0d:a6:35:8e:8a:6d:
                    83:f6:47:77:bd:d5:e7:b1:e0:45:51:03:f4:66:0b:
                    2e:2e:ad:e6:09:ee:db:5e:7e:d4:0d:46:85:a3:01:
                    4c:66:84:8e:bf:0f:20:b1:07
                Exponent: 65537 (0x10001)
        X509v3 extensions:
            X509v3 Basic Constraints: 
                CA:FALSE
            Netscape Comment: 
                OpenSSL Generated Certificate
            X509v3 Subject Key Identifier: 
                8A:C6:A1:A3:A6:36:3D:20:C6:05:8D:61:29:DD:46:01:3B:98:F9:71
            X509v3 Authority Key Identifier: 
                keyid:D4:D5:5D:23:00:16:05:08:CD:CB:4E:6F:79:65:E1:BA:87:C6:61:02

    Signature Algorithm: sha1WithRSAEncryption
        94:23:b7:79:72:14:3d:99:ac:44:c5:09:e4:08:33:0e:97:1e:
        a3:26:0f:5b:84:01:b1:54:9a:9c:16:a6:fa:01:5e:f7:82:ef:
        2c:54:cf:35:ce:c3:7a:2e:9a:bd:07:a0:26:0a:57:41:01:8b:
        2e:0d:bd:9f:e5:7e:e9:4d:f3:d1:eb:81:33:07:2d:cc:5e:1f:
        78:58:4f:1b:56:b2:11:e2:20:e8:13:34:34:c1:bc:d9:d3:e3:
        d0:74:8e:8a:32:c2:46:ad:c2:ee:6a:70:94:75:61:76:2f:83:
        5c:54:86:9d:f0:37:46:ce:13:47:52:da:ec:89:bb:48:9a:b6:
        ea:dd
-----BEGIN CERTIFICATE-----
MIIDGjCCAoOgAwIBAgIBATANBgkqhkiG9w0BAQUFADCBnDELMAkGA1UEBhMCUEgx
EDAOBgNVBAgTB0Jlbmd1ZXQxDzANBgNVBAcTBkJhZ3VpbzEfMB0GA1UEChMWU2Fp
bnQgTG91aXMgVW5pdmVyc2l0eTEMMAoGA1UECxMDTUlTMRMwEQYDVQQDEwp3ZWJz
ZXJ2aWNlMSYwJAYJKoZIhvcNAQkBFhdheS5idWVuYXZpc3RhQGdtYWlsLmNvbTAe
Fw0wOTAzMjUwNTE2MDdaFw0xMDAzMjUwNTE2MDdaMIGLMQswCQYDVQQGEwJQSDEQ
MA4GA1UECBMHQmVuZ3VldDEfMB0GA1UEChMWU2FpbnQgTG91aXMgVW5pdmVyc2l0
eTEMMAoGA1UECxMDTUlTMRMwEQYDVQQDEwp3ZWJzZXJ2aWNlMSYwJAYJKoZIhvcN
AQkBFhdheS5idWVuYXZpc3RhQGdtYWlsLmNvbTCBnzANBgkqhkiG9w0BAQEFAAOB
jQAwgYkCgYEAmYFFBTWN/nPR2eN40CL6Ho2n9QjzOQu/WqRJRfCNbMjmqOr6Hvxp
v5NQsAuN8PyiDka/cWWx4k8z6qUygft893lsmJsIdZMwFdGkmxmgbRd77McNpjWO
im2D9kd3vdXnseBFUQP0ZgsuLq3mCe7bXn7UDUaFowFMZoSOvw8gsQcCAwEAAaN7
MHkwCQYDVR0TBAIwADAsBglghkgBhvhCAQ0EHxYdT3BlblNTTCBHZW5lcmF0ZWQg
Q2VydGlmaWNhdGUwHQYDVR0OBBYEFIrGoaOmNj0gxgWNYSndRgE7mPlxMB8GA1Ud
IwQYMBaAFNTVXSMAFgUIzctOb3ll4bqHxmECMA0GCSqGSIb3DQEBBQUAA4GBAJQj
t3lyFD2ZrETFCeQIMw6XHqMmD1uEAbFUmpwWpvoBXveC7yxUzzXOw3oumr0HoCYK
V0EBiy4NvZ/lfulN89HrgTMHLcxeH3hYTxtWshHiIOgTNDTBvNnT49B0jooywkat
wu5qcJR1YXYvg1xUhp3wN0bOE0dS2uyJu0iaturd
-----END CERTIFICATE-----
