-----BEGIN RSA PRIVATE KEY-----
MIICXQIBAAKBgQDNfo4ksTtPCSRBBCOMPo6Xs5pPhiSPKHbS3StXWmbXjUNqbBjF
+zhpCIUI8ZbVwrfZLAlAaqauyegKatji3TGM7TXdMkwoRhdqqTHADc0X/GlgXryr
sxobF+JG8hgXgBxKNiqOx9ZSG6QeWoM5I2PryzS9UTu1RgTOcUysG3JBwwIDAQAB
AoGAT0t7fCsrsKbdZ306Xl6xVVaHwBIKP3ekyl9v3whSUPEAx6sosBTtwpH4C+h1
hMzbdqDofQPqh93/fS2XvYsPGBnrtAKrrv731h2XatMSMl4H86798/HpYOzrEAfT
9lWx7BhRSeRNedjOirNxjPtLQ6+gYOZTHG5HzSP0wTq5B8kCQQD16q7KOUFYLmIz
pcNlsM8vhHYAIWdIOk8WYXamrXfWyED+t9T7oie/SV2QWPBs7gYk1thtc2Sm22pW
gTdkdOs9AkEA1euSCHm8Ennm8qGOBx/iO2dNZzmPl5Lx5KcemNEd/+rpNyaUH8Pm
bsY+bReKxuCk4lhCqXQqQwUdu2/2amqw/wJBAIb6nZ4Z9yfzrasznSC//7jROAOy
UgJvHuHl9T5fkJuvpx0owhqsUqzIFDca2jywGWc3Fexdni2H2cJJgqH9GvECQEZj
/qiVTiKSREFgkbiccDf11Q17blmE+92udC362bFFXjpMkn8lWiTnTNFe5sZsUzU7
r6vM0r885ryvqdj4hIcCQQDdmxBr1vofcQC8P7VVYleQkWqX6Dp8wg7f4Zt3VTSw
K7kQDOkVUs+AwQVruRrS6Jv65N3QeG3vtL5WNg2+2Cqf
-----END RSA PRIVATE KEY-----
Certificate:
    Data:
        Version: 3 (0x2)
        Serial Number: 1 (0x1)
        Signature Algorithm: sha1WithRSAEncryption
        Issuer: C=PH, ST=Benguet, L=Baguio, O=Saint Louis University, OU=MIS, CN=oasis/emailAddress=ay.buenavista@gmail.com
        Validity
            Not Before: Mar 24 18:28:56 2009 GMT
            Not After : Mar 24 18:28:56 2010 GMT
        Subject: C=PH, ST=Benguet, O=Saint Louis University, OU=MIS, CN=oasis/emailAddress=ay.buenavista@gmail.com
        Subject Public Key Info:
            Public Key Algorithm: rsaEncryption
            RSA Public Key: (1024 bit)
                Modulus (1024 bit):
                    00:cd:7e:8e:24:b1:3b:4f:09:24:41:04:23:8c:3e:
                    8e:97:b3:9a:4f:86:24:8f:28:76:d2:dd:2b:57:5a:
                    66:d7:8d:43:6a:6c:18:c5:fb:38:69:08:85:08:f1:
                    96:d5:c2:b7:d9:2c:09:40:6a:a6:ae:c9:e8:0a:6a:
                    d8:e2:dd:31:8c:ed:35:dd:32:4c:28:46:17:6a:a9:
                    31:c0:0d:cd:17:fc:69:60:5e:bc:ab:b3:1a:1b:17:
                    e2:46:f2:18:17:80:1c:4a:36:2a:8e:c7:d6:52:1b:
                    a4:1e:5a:83:39:23:63:eb:cb:34:bd:51:3b:b5:46:
                    04:ce:71:4c:ac:1b:72:41:c3
                Exponent: 65537 (0x10001)
        X509v3 extensions:
            X509v3 Basic Constraints: 
                CA:FALSE
            Netscape Comment: 
                OpenSSL Generated Certificate
            X509v3 Subject Key Identifier: 
                77:F5:7F:56:0E:88:92:C2:2D:6B:DF:38:4A:F6:73:66:BD:6E:FE:F9
            X509v3 Authority Key Identifier: 
                keyid:E0:EE:E5:1E:3E:31:BB:7B:DD:08:29:A9:DE:37:36:E8:89:D7:7C:6F

    Signature Algorithm: sha1WithRSAEncryption
        4d:a5:5c:b2:10:4f:01:40:0e:91:7e:6c:41:41:e2:29:dc:f1:
        38:cc:54:04:ef:ae:41:35:4e:45:04:e3:29:6b:23:ed:82:2a:
        84:59:a8:56:7d:e7:f7:81:6d:0d:92:2c:73:21:5d:45:8d:e0:
        ad:c6:ad:fa:48:07:ff:ce:a6:5d:05:ab:8e:4c:86:2e:9c:9a:
        ee:2a:44:de:2b:ae:e0:6b:7d:6c:b2:c4:45:3e:97:cd:4d:93:
        f7:98:4d:f0:74:0a:db:0b:a3:90:ba:62:bb:82:a9:21:74:a6:
        15:e7:28:7e:b5:33:d4:1c:88:c8:36:3a:30:98:82:d5:44:ce:
        05:c7
-----BEGIN CERTIFICATE-----
MIIDEDCCAnmgAwIBAgIBATANBgkqhkiG9w0BAQUFADCBlzELMAkGA1UEBhMCUEgx
EDAOBgNVBAgTB0Jlbmd1ZXQxDzANBgNVBAcTBkJhZ3VpbzEfMB0GA1UEChMWU2Fp
bnQgTG91aXMgVW5pdmVyc2l0eTEMMAoGA1UECxMDTUlTMQ4wDAYDVQQDEwVvYXNp
czEmMCQGCSqGSIb3DQEJARYXYXkuYnVlbmF2aXN0YUBnbWFpbC5jb20wHhcNMDkw
MzI0MTgyODU2WhcNMTAwMzI0MTgyODU2WjCBhjELMAkGA1UEBhMCUEgxEDAOBgNV
BAgTB0Jlbmd1ZXQxHzAdBgNVBAoTFlNhaW50IExvdWlzIFVuaXZlcnNpdHkxDDAK
BgNVBAsTA01JUzEOMAwGA1UEAxMFb2FzaXMxJjAkBgkqhkiG9w0BCQEWF2F5LmJ1
ZW5hdmlzdGFAZ21haWwuY29tMIGfMA0GCSqGSIb3DQEBAQUAA4GNADCBiQKBgQDN
fo4ksTtPCSRBBCOMPo6Xs5pPhiSPKHbS3StXWmbXjUNqbBjF+zhpCIUI8ZbVwrfZ
LAlAaqauyegKatji3TGM7TXdMkwoRhdqqTHADc0X/GlgXryrsxobF+JG8hgXgBxK
NiqOx9ZSG6QeWoM5I2PryzS9UTu1RgTOcUysG3JBwwIDAQABo3sweTAJBgNVHRME
AjAAMCwGCWCGSAGG+EIBDQQfFh1PcGVuU1NMIEdlbmVyYXRlZCBDZXJ0aWZpY2F0
ZTAdBgNVHQ4EFgQUd/V/Vg6IksIta984SvZzZr1u/vkwHwYDVR0jBBgwFoAU4O7l
Hj4xu3vdCCmp3jc26InXfG8wDQYJKoZIhvcNAQEFBQADgYEATaVcshBPAUAOkX5s
QUHiKdzxOMxUBO+uQTVORQTjKWsj7YIqhFmoVn3n94FtDZIscyFdRY3grcat+kgH
/86mXQWrjkyGLpya7ipE3iuu4Gt9bLLERT6XzU2T95hN8HQK2wujkLpiu4KpIXSm
FecofrUz1ByIyDY6MJiC1UTOBcc=
-----END CERTIFICATE-----
